target datalayout = "e-m:e-p270:32:32-p271:32:32-p272:64:64-i64:64-i128:128-f80:128-n8:16:32:64-S128"
target triple = "x86_64-pc-linux-gnu"

%struct.GISTSTATE = type { ptr, ptr, ptr, ptr, ptr, [32 x %struct.FmgrInfo], [32 x %struct.FmgrInfo], [32 x %struct.FmgrInfo], [32 x %struct.FmgrInfo], [32 x %struct.FmgrInfo], [32 x %struct.FmgrInfo], [32 x %struct.FmgrInfo], [32 x %struct.FmgrInfo], [32 x %struct.FmgrInfo], [32 x i32] }
%struct.FmgrInfo = type { ptr, i32, i16, i8, i8, i8, ptr, ptr, ptr }

; Function Attrs: inlinehint nounwind uwtable
define internal float @get_float4_infinity() #2 {
  ret float 0x7FF0000000000000
}

; Function Attrs: inlinehint nounwind uwtable
define internal i64 @PointerGetDatum(ptr noundef %0) #2 {
  %2 = alloca ptr, align 8
  store ptr %0, ptr %2, align 8
  %3 = load ptr, ptr %2, align 8
  %4 = ptrtoint ptr %3 to i64
  ret i64 %4
}

; Function Attrs: nounwind uwtable
define dso_local float @gistpenalty(ptr noundef %0, i32 noundef %1, ptr noundef %2, i1 noundef zeroext %3, ptr noundef %4, i1 noundef zeroext %5) #0 {
  %7 = alloca ptr, align 8
  %8 = alloca i32, align 4
  %9 = alloca ptr, align 8
  %10 = alloca i8, align 1
  %11 = alloca ptr, align 8
  %12 = alloca i8, align 1
  %13 = alloca float, align 4
  store ptr %0, ptr %7, align 8
  store i32 %1, ptr %8, align 4
  store ptr %2, ptr %9, align 8
  %14 = zext i1 %3 to i8
  store i8 %14, ptr %10, align 1
  store ptr %4, ptr %11, align 8
  %15 = zext i1 %5 to i8
  store i8 %15, ptr %12, align 1
  call void @llvm.lifetime.start.p0(i64 4, ptr %13) #8
  store float 0.000000e+00, ptr %13, align 4
  %16 = load ptr, ptr %7, align 8
  %17 = getelementptr inbounds nuw %struct.GISTSTATE, ptr %16, i32 0, i32 9
  %18 = load i32, ptr %8, align 4
  %19 = sext i32 %18 to i64
  %20 = getelementptr inbounds [32 x %struct.FmgrInfo], ptr %17, i64 0, i64 %19
  %21 = getelementptr inbounds nuw %struct.FmgrInfo, ptr %20, i32 0, i32 3
  %22 = load i8, ptr %21, align 2, !range !11, !noundef !12
  %23 = trunc i8 %22 to i1
  %24 = zext i1 %23 to i32
  %25 = icmp eq i32 %24, 0
  br i1 %25, label %36, label %26

26:                                               ; preds = %6
  %27 = load i8, ptr %10, align 1, !range !11, !noundef !12
  %28 = trunc i8 %27 to i1
  %29 = zext i1 %28 to i32
  %30 = icmp eq i32 %29, 0
  br i1 %30, label %31, label %62

31:                                               ; preds = %26
  %32 = load i8, ptr %12, align 1, !range !11, !noundef !12
  %33 = trunc i8 %32 to i1
  %34 = zext i1 %33 to i32
  %35 = icmp eq i32 %34, 0
  br i1 %35, label %36, label %62

36:                                               ; preds = %31, %6
  %37 = load ptr, ptr %7, align 8
  %38 = getelementptr inbounds nuw %struct.GISTSTATE, ptr %37, i32 0, i32 9
  %39 = load i32, ptr %8, align 4
  %40 = sext i32 %39 to i64
  %41 = getelementptr inbounds [32 x %struct.FmgrInfo], ptr %38, i64 0, i64 %40
  %42 = load ptr, ptr %7, align 8
  %43 = getelementptr inbounds nuw %struct.GISTSTATE, ptr %42, i32 0, i32 14
  %44 = load i32, ptr %8, align 4
  %45 = sext i32 %44 to i64
  %46 = getelementptr inbounds [32 x i32], ptr %43, i64 0, i64 %45
  %47 = load i32, ptr %46, align 4
  %48 = load ptr, ptr %9, align 8
  %49 = call i64 @PointerGetDatum(ptr noundef %48)
  %50 = load ptr, ptr %11, align 8
  %51 = call i64 @PointerGetDatum(ptr noundef %50)
  %52 = call i64 @PointerGetDatum(ptr noundef %13)
  %53 = call i64 @FunctionCall3Coll(ptr noundef %41, i32 noundef %47, i64 noundef %49, i64 noundef %51, i64 noundef %52)
  %54 = load float, ptr %13, align 4
  %55 = call i1 @llvm.is.fpclass.f32(float %54, i32 3)
  br i1 %55, label %60, label %56

56:                                               ; preds = %36
  %57 = load float, ptr %13, align 4
  %58 = fpext float %57 to double
  %59 = fcmp olt double %58, 0.000000e+00
  br i1 %59, label %60, label %61

60:                                               ; preds = %56, %36
  store float 0.000000e+00, ptr %13, align 4
  br label %61

61:                                               ; preds = %60, %56
  br label %72

62:                                               ; preds = %31, %26
  %63 = load i8, ptr %10, align 1, !range !11, !noundef !12
  %64 = trunc i8 %63 to i1
  br i1 %64, label %65, label %69

65:                                               ; preds = %62
  %66 = load i8, ptr %12, align 1, !range !11, !noundef !12
  %67 = trunc i8 %66 to i1
  br i1 %67, label %68, label %69

68:                                               ; preds = %65
  store float 0.000000e+00, ptr %13, align 4
  br label %71

69:                                               ; preds = %65, %62
  %70 = call float @get_float4_infinity()
  store float %70, ptr %13, align 4
  br label %71

71:                                               ; preds = %69, %68
  br label %72

72:                                               ; preds = %71, %61
  %73 = load float, ptr %13, align 4
  call void @llvm.lifetime.end.p0(i64 4, ptr %13) #8
  ret float %73
}