; Function Attrs: nounwind uwtable
define dso_local float @gistpenalty(ptr noundef %0, i32 noundef %1, ptr noundef %2, i1 noundef zeroext %3, ptr noundef %4, i1 noundef zeroext %5) local_unnamed_addr #0 {
  %7 = alloca float, align 4
  call void @llvm.lifetime.start.p0(i64 4, ptr nonnull %7) #11
  store float 0.000000e+00, ptr %7, align 4
  %8 = getelementptr inbounds nuw i8, ptr %0, i64 6184
  %9 = sext i32 %1 to i64
  %10 = getelementptr inbounds [32 x %struct.FmgrInfo], ptr %8, i64 0, i64 %9
  %11 = getelementptr inbounds nuw i8, ptr %10, i64 14
  %12 = load i8, ptr %11, align 2, !range !12, !noundef !13
  %13 = icmp ne i8 %12, 0
  %brmerge = or i1 %3, %5
  %or.cond13 = and i1 %brmerge, %13
  br i1 %or.cond13, label %24, label %14

14:                                               ; preds = %6
  %15 = getelementptr inbounds nuw i8, ptr %0, i64 13864
  %16 = getelementptr inbounds [32 x i32], ptr %15, i64 0, i64 %9
  %17 = load i32, ptr %16, align 4
  %18 = ptrtoint ptr %2 to i64
  %19 = ptrtoint ptr %4 to i64
  %20 = ptrtoint ptr %7 to i64
  %21 = call i64 @FunctionCall3Coll(ptr noundef nonnull %10, i32 noundef %17, i64 noundef %18, i64 noundef %19, i64 noundef %20) #11
  %22 = load float, ptr %7, align 4
  %or.cond = fcmp ult float %22, 0.000000e+00
  br i1 %or.cond, label %23, label %25

23:                                               ; preds = %14
  br label %25

24:                                               ; preds = %6
  %brmerge12.demorgan = and i1 %3, %5
  %. = select i1 %brmerge12.demorgan, float 0.000000e+00, float 0x7FF0000000000000
  br label %25

25:                                               ; preds = %24, %14, %23
  %26 = phi float [ %22, %14 ], [ 0.000000e+00, %23 ], [ %., %24 ]
  call void @llvm.lifetime.end.p0(i64 4, ptr nonnull %7) #11
  ret float %26
}